target datalayout = "e-m:e-p270:32:32-p271:32:32-p272:64:64-i64:64-i128:128-f80:128-n8:16:32:64-S128"
target triple = "x86_64-pc-linux-gnu"

%struct.strbuf = type { i64, i64, ptr }
%struct.ls_refs_data = type { i32, i32, %struct.strvec, %struct.strbuf, %struct.strvec, i8 }
%struct.strvec = type { ptr, i64, i64 }
%struct.object_id = type { [32 x i8], i32 }

@stdout = external global ptr, align 8
@the_repository = external global ptr, align 8
@strbuf_slopbuf = external global [0 x i8], align 1
@.str.14 = private unnamed_addr constant [6 x i8] c"%s %s\00", align 1
@.str.15 = private unnamed_addr constant [10 x i8] c"unborn %s\00", align 1
@.str.16 = private unnamed_addr constant [32 x i8] c"'%s' is a symref but it is not?\00", align 1
@.str.17 = private unnamed_addr constant [18 x i8] c" symref-target:%s\00", align 1
@.str.18 = private unnamed_addr constant [11 x i8] c" peeled:%s\00", align 1
@.str.19 = private unnamed_addr constant [11 x i8] c"./strbuf.h\00", align 1
@.str.20 = private unnamed_addr constant [30 x i8] c"strbuf_setlen() beyond buffer\00", align 1

; Function Attrs: inlinehint nounwind uwtable
define internal i64 @strbuf_avail(ptr noundef %0) #4 {
  %2 = alloca ptr, align 8
  store ptr %0, ptr %2, align 8, !tbaa !45
  %3 = load ptr, ptr %2, align 8, !tbaa !45
  %4 = getelementptr inbounds nuw %struct.strbuf, ptr %3, i32 0, i32 0
  %5 = load i64, ptr %4, align 8, !tbaa !48
  %6 = icmp ne i64 %5, 0
  br i1 %6, label %7, label %16

7:                                                ; preds = %1
  %8 = load ptr, ptr %2, align 8, !tbaa !45
  %9 = getelementptr inbounds nuw %struct.strbuf, ptr %8, i32 0, i32 0
  %10 = load i64, ptr %9, align 8, !tbaa !48
  %11 = load ptr, ptr %2, align 8, !tbaa !45
  %12 = getelementptr inbounds nuw %struct.strbuf, ptr %11, i32 0, i32 1
  %13 = load i64, ptr %12, align 8, !tbaa !49
  %14 = sub i64 %10, %13
  %15 = sub i64 %14, 1
  br label %17

16:                                               ; preds = %1
  br label %17

17:                                               ; preds = %16, %7
  %18 = phi i64 [ %15, %7 ], [ 0, %16 ]
  ret i64 %18
}

; Function Attrs: inlinehint nounwind uwtable
define internal void @strbuf_addch(ptr noundef %0, i32 noundef %1) #4 {
  %3 = alloca ptr, align 8
  %4 = alloca i32, align 4
  store ptr %0, ptr %3, align 8, !tbaa !45
  store i32 %1, ptr %4, align 4, !tbaa !39
  %5 = load ptr, ptr %3, align 8, !tbaa !45
  %6 = call i64 @strbuf_avail(ptr noundef %5)
  %7 = icmp ne i64 %6, 0
  br i1 %7, label %10, label %8

8:                                                ; preds = %2
  %9 = load ptr, ptr %3, align 8, !tbaa !45
  call void @strbuf_grow(ptr noundef %9, i64 noundef 1)
  br label %10

10:                                               ; preds = %8, %2
  %11 = load i32, ptr %4, align 4, !tbaa !39
  %12 = trunc i32 %11 to i8
  %13 = load ptr, ptr %3, align 8, !tbaa !45
  %14 = getelementptr inbounds nuw %struct.strbuf, ptr %13, i32 0, i32 2
  %15 = load ptr, ptr %14, align 8, !tbaa !40
  %16 = load ptr, ptr %3, align 8, !tbaa !45
  %17 = getelementptr inbounds nuw %struct.strbuf, ptr %16, i32 0, i32 1
  %18 = load i64, ptr %17, align 8, !tbaa !49
  %19 = add i64 %18, 1
  store i64 %19, ptr %17, align 8, !tbaa !49
  %20 = getelementptr inbounds nuw i8, ptr %15, i64 %18
  store i8 %12, ptr %20, align 1, !tbaa !37
  %21 = load ptr, ptr %3, align 8, !tbaa !45
  %22 = getelementptr inbounds nuw %struct.strbuf, ptr %21, i32 0, i32 2
  %23 = load ptr, ptr %22, align 8, !tbaa !40
  %24 = load ptr, ptr %3, align 8, !tbaa !45
  %25 = getelementptr inbounds nuw %struct.strbuf, ptr %24, i32 0, i32 1
  %26 = load i64, ptr %25, align 8, !tbaa !49
  %27 = getelementptr inbounds nuw i8, ptr %23, i64 %26
  store i8 0, ptr %27, align 1, !tbaa !37
  ret void
}

; Function Attrs: nounwind uwtable
define internal i32 @ref_match(ptr noundef %0, ptr noundef %1) #0 {
  %3 = alloca i32, align 4
  %4 = alloca ptr, align 8
  %5 = alloca ptr, align 8
  %6 = alloca i64, align 8
  %7 = alloca i32, align 4
  %8 = alloca ptr, align 8
  store ptr %0, ptr %4, align 8, !tbaa !50
  store ptr %1, ptr %5, align 8, !tbaa !18
  %9 = load ptr, ptr %4, align 8, !tbaa !50
  %10 = getelementptr inbounds nuw %struct.strvec, ptr %9, i32 0, i32 1
  %11 = load i64, ptr %10, align 8, !tbaa !52
  %12 = icmp ne i64 %11, 0
  br i1 %12, label %14, label %13

13:                                               ; preds = %2
  store i32 1, ptr %3, align 4
  br label %44

14:                                               ; preds = %2
  call void @llvm.lifetime.start.p0(i64 8, ptr %6) #9
  store i64 0, ptr %6, align 8, !tbaa !47
  br label %15

15:                                               ; preds = %38, %14
  %16 = load i64, ptr %6, align 8, !tbaa !47
  %17 = load ptr, ptr %4, align 8, !tbaa !50
  %18 = getelementptr inbounds nuw %struct.strvec, ptr %17, i32 0, i32 1
  %19 = load i64, ptr %18, align 8, !tbaa !52
  %20 = icmp ult i64 %16, %19
  br i1 %20, label %22, label %21

21:                                               ; preds = %15
  store i32 2, ptr %7, align 4
  br label %41

22:                                               ; preds = %15
  call void @llvm.lifetime.start.p0(i64 8, ptr %8) #9
  %23 = load ptr, ptr %4, align 8, !tbaa !50
  %24 = getelementptr inbounds nuw %struct.strvec, ptr %23, i32 0, i32 0
  %25 = load ptr, ptr %24, align 8, !tbaa !53
  %26 = load i64, ptr %6, align 8, !tbaa !47
  %27 = getelementptr inbounds nuw ptr, ptr %25, i64 %26
  %28 = load ptr, ptr %27, align 8, !tbaa !18
  store ptr %28, ptr %8, align 8, !tbaa !18
  %29 = load ptr, ptr %5, align 8, !tbaa !18
  %30 = load ptr, ptr %8, align 8, !tbaa !18
  %31 = call i32 @starts_with(ptr noundef %29, ptr noundef %30)
  %32 = icmp ne i32 %31, 0
  br i1 %32, label %33, label %34

33:                                               ; preds = %22
  store i32 1, ptr %3, align 4
  store i32 1, ptr %7, align 4
  br label %35

34:                                               ; preds = %22
  store i32 0, ptr %7, align 4
  br label %35

35:                                               ; preds = %34, %33
  call void @llvm.lifetime.end.p0(i64 8, ptr %8) #9
  %36 = load i32, ptr %7, align 4
  switch i32 %36, label %41 [
    i32 0, label %37
  ]

37:                                               ; preds = %35
  br label %38

38:                                               ; preds = %37
  %39 = load i64, ptr %6, align 8, !tbaa !47
  %40 = add i64 %39, 1
  store i64 %40, ptr %6, align 8, !tbaa !47
  br label %15, !llvm.loop !54

41:                                               ; preds = %35, %21
  call void @llvm.lifetime.end.p0(i64 8, ptr %6) #9
  %42 = load i32, ptr %7, align 4
  switch i32 %42, label %46 [
    i32 2, label %43
    i32 1, label %44
  ]

43:                                               ; preds = %41
  store i32 0, ptr %3, align 4
  br label %44

44:                                               ; preds = %43, %41, %13
  %45 = load i32, ptr %3, align 4
  ret i32 %45

46:                                               ; preds = %41
  unreachable
}

; Function Attrs: inlinehint nounwind uwtable
define internal void @strbuf_setlen(ptr noundef %0, i64 noundef %1) #4 {
  %3 = alloca ptr, align 8
  %4 = alloca i64, align 8
  store ptr %0, ptr %3, align 8, !tbaa !45
  store i64 %1, ptr %4, align 8, !tbaa !47
  %5 = load i64, ptr %4, align 8, !tbaa !47
  %6 = load ptr, ptr %3, align 8, !tbaa !45
  %7 = getelementptr inbounds nuw %struct.strbuf, ptr %6, i32 0, i32 0
  %8 = load i64, ptr %7, align 8, !tbaa !48
  %9 = icmp ne i64 %8, 0
  br i1 %9, label %10, label %15

10:                                               ; preds = %2
  %11 = load ptr, ptr %3, align 8, !tbaa !45
  %12 = getelementptr inbounds nuw %struct.strbuf, ptr %11, i32 0, i32 0
  %13 = load i64, ptr %12, align 8, !tbaa !48
  %14 = sub i64 %13, 1
  br label %16

15:                                               ; preds = %2
  br label %16

16:                                               ; preds = %15, %10
  %17 = phi i64 [ %14, %10 ], [ 0, %15 ]
  %18 = icmp ugt i64 %5, %17
  br i1 %18, label %19, label %20

19:                                               ; preds = %16
  call void (ptr, i32, ptr, ...) @BUG_fl(ptr noundef @.str.19, i32 noundef 167, ptr noundef @.str.20) #11
  unreachable

20:                                               ; preds = %16
  %21 = load i64, ptr %4, align 8, !tbaa !47
  %22 = load ptr, ptr %3, align 8, !tbaa !45
  %23 = getelementptr inbounds nuw %struct.strbuf, ptr %22, i32 0, i32 1
  store i64 %21, ptr %23, align 8, !tbaa !49
  %24 = load ptr, ptr %3, align 8, !tbaa !45
  %25 = getelementptr inbounds nuw %struct.strbuf, ptr %24, i32 0, i32 2
  %26 = load ptr, ptr %25, align 8, !tbaa !40
  %27 = icmp ne ptr %26, @strbuf_slopbuf
  br i1 %27, label %28, label %34

28:                                               ; preds = %20
  %29 = load ptr, ptr %3, align 8, !tbaa !45
  %30 = getelementptr inbounds nuw %struct.strbuf, ptr %29, i32 0, i32 2
  %31 = load ptr, ptr %30, align 8, !tbaa !40
  %32 = load i64, ptr %4, align 8, !tbaa !47
  %33 = getelementptr inbounds nuw i8, ptr %31, i64 %32
  store i8 0, ptr %33, align 1, !tbaa !37
  br label %35

34:                                               ; preds = %20
  br label %35

35:                                               ; preds = %34, %28
  ret void
}

; Function Attrs: nounwind uwtable
define internal i32 @send_ref(ptr noundef %0, ptr noundef %1, ptr noundef %2, i32 noundef %3, ptr noundef %4) #0 {
  %6 = alloca i32, align 4
  %7 = alloca ptr, align 8
  %8 = alloca ptr, align 8
  %9 = alloca ptr, align 8
  %10 = alloca i32, align 4
  %11 = alloca ptr, align 8
  %12 = alloca ptr, align 8
  %13 = alloca ptr, align 8
  %14 = alloca i32, align 4
  %15 = alloca %struct.object_id, align 4
  %16 = alloca ptr, align 8
  %17 = alloca %struct.object_id, align 4
  store ptr %0, ptr %7, align 8, !tbaa !18
  store ptr %1, ptr %8, align 8, !tbaa !18
  store ptr %2, ptr %9, align 8, !tbaa !41
  store i32 %3, ptr %10, align 4, !tbaa !39
  store ptr %4, ptr %11, align 8, !tbaa !31
  call void @llvm.lifetime.start.p0(i64 8, ptr %12) #9
  %18 = load ptr, ptr %11, align 8, !tbaa !31
  store ptr %18, ptr %12, align 8, !tbaa !34
  call void @llvm.lifetime.start.p0(i64 8, ptr %13) #9
  %19 = load ptr, ptr %7, align 8, !tbaa !18
  %20 = call ptr @strip_namespace(ptr noundef %19)
  store ptr %20, ptr %13, align 8, !tbaa !18
  %21 = load ptr, ptr %12, align 8, !tbaa !34
  %22 = getelementptr inbounds nuw %struct.ls_refs_data, ptr %21, i32 0, i32 3
  call void @strbuf_setlen(ptr noundef %22, i64 noundef 0)
  %23 = load ptr, ptr %13, align 8, !tbaa !18
  %24 = load ptr, ptr %7, align 8, !tbaa !18
  %25 = load ptr, ptr %12, align 8, !tbaa !34
  %26 = getelementptr inbounds nuw %struct.ls_refs_data, ptr %25, i32 0, i32 4
  %27 = call i32 @ref_is_hidden(ptr noundef %23, ptr noundef %24, ptr noundef %26)
  %28 = icmp ne i32 %27, 0
  br i1 %28, label %29, label %30

29:                                               ; preds = %5
  store i32 0, ptr %6, align 4
  store i32 1, ptr %14, align 4
  br label %103

30:                                               ; preds = %5
  %31 = load ptr, ptr %12, align 8, !tbaa !34
  %32 = getelementptr inbounds nuw %struct.ls_refs_data, ptr %31, i32 0, i32 2
  %33 = load ptr, ptr %13, align 8, !tbaa !18
  %34 = call i32 @ref_match(ptr noundef %32, ptr noundef %33)
  %35 = icmp ne i32 %34, 0
  br i1 %35, label %37, label %36

36:                                               ; preds = %30
  store i32 0, ptr %6, align 4
  store i32 1, ptr %14, align 4
  br label %103

37:                                               ; preds = %30
  %38 = load ptr, ptr %9, align 8, !tbaa !41
  %39 = icmp ne ptr %38, null
  br i1 %39, label %40, label %46

40:                                               ; preds = %37
  %41 = load ptr, ptr %12, align 8, !tbaa !34
  %42 = getelementptr inbounds nuw %struct.ls_refs_data, ptr %41, i32 0, i32 3
  %43 = load ptr, ptr %9, align 8, !tbaa !41
  %44 = call ptr @oid_to_hex(ptr noundef %43)
  %45 = load ptr, ptr %13, align 8, !tbaa !18
  call void (ptr, ptr, ...) @strbuf_addf(ptr noundef %42, ptr noundef @.str.14, ptr noundef %44, ptr noundef %45)
  br label %50

46:                                               ; preds = %37
  %47 = load ptr, ptr %12, align 8, !tbaa !34
  %48 = getelementptr inbounds nuw %struct.ls_refs_data, ptr %47, i32 0, i32 3
  %49 = load ptr, ptr %13, align 8, !tbaa !18
  call void (ptr, ptr, ...) @strbuf_addf(ptr noundef %48, ptr noundef @.str.15, ptr noundef %49)
  br label %50

50:                                               ; preds = %46, %40
  %51 = load ptr, ptr %12, align 8, !tbaa !34
  %52 = getelementptr inbounds nuw %struct.ls_refs_data, ptr %51, i32 0, i32 1
  %53 = load i32, ptr %52, align 4, !tbaa !23
  %54 = icmp ne i32 %53, 0
  br i1 %54, label %55, label %73

55:                                               ; preds = %50
  %56 = load i32, ptr %10, align 4, !tbaa !39
  %57 = and i32 %56, 1
  %58 = icmp ne i32 %57, 0
  br i1 %58, label %59, label %73

59:                                               ; preds = %55
  call void @llvm.lifetime.start.p0(i64 36, ptr %15) #9
  call void @llvm.lifetime.start.p0(i64 8, ptr %16) #9
  %60 = load ptr, ptr @the_repository, align 8, !tbaa !4
  %61 = call ptr @get_main_ref_store(ptr noundef %60)
  %62 = load ptr, ptr %7, align 8, !tbaa !18
  %63 = call ptr @refs_resolve_ref_unsafe(ptr noundef %61, ptr noundef %62, i32 noundef 0, ptr noundef %15, ptr noundef %10)
  store ptr %63, ptr %16, align 8, !tbaa !18
  %64 = load ptr, ptr %16, align 8, !tbaa !18
  %65 = icmp ne ptr %64, null
  br i1 %65, label %68, label %66

66:                                               ; preds = %59
  %67 = load ptr, ptr %7, align 8, !tbaa !18
  call void (ptr, ...) @die(ptr noundef @.str.16, ptr noundef %67) #11
  unreachable

68:                                               ; preds = %59
  %69 = load ptr, ptr %12, align 8, !tbaa !34
  %70 = getelementptr inbounds nuw %struct.ls_refs_data, ptr %69, i32 0, i32 3
  %71 = load ptr, ptr %16, align 8, !tbaa !18
  %72 = call ptr @strip_namespace(ptr noundef %71)
  call void (ptr, ptr, ...) @strbuf_addf(ptr noundef %70, ptr noundef @.str.17, ptr noundef %72)
  call void @llvm.lifetime.end.p0(i64 8, ptr %16) #9
  call void @llvm.lifetime.end.p0(i64 36, ptr %15) #9
  br label %73

73:                                               ; preds = %68, %55, %50
  %74 = load ptr, ptr %12, align 8, !tbaa !34
  %75 = getelementptr inbounds nuw %struct.ls_refs_data, ptr %74, i32 0, i32 0
  %76 = load i32, ptr %75, align 8, !tbaa !19
  %77 = icmp ne i32 %76, 0
  br i1 %77, label %78, label %91

78:                                               ; preds = %73
  %79 = load ptr, ptr %9, align 8, !tbaa !41
  %80 = icmp ne ptr %79, null
  br i1 %80, label %81, label %91

81:                                               ; preds = %78
  call void @llvm.lifetime.start.p0(i64 36, ptr %17) #9
  %82 = load ptr, ptr @the_repository, align 8, !tbaa !4
  %83 = load ptr, ptr %9, align 8, !tbaa !41
  %84 = call i32 @peel_iterated_oid(ptr noundef %82, ptr noundef %83, ptr noundef %17)
  %85 = icmp ne i32 %84, 0
  br i1 %85, label %90, label %86

86:                                               ; preds = %81
  %87 = load ptr, ptr %12, align 8, !tbaa !34
  %88 = getelementptr inbounds nuw %struct.ls_refs_data, ptr %87, i32 0, i32 3
  %89 = call ptr @oid_to_hex(ptr noundef %17)
  call void (ptr, ptr, ...) @strbuf_addf(ptr noundef %88, ptr noundef @.str.18, ptr noundef %89)
  br label %90

90:                                               ; preds = %86, %81
  call void @llvm.lifetime.end.p0(i64 36, ptr %17) #9
  br label %91

91:                                               ; preds = %90, %78, %73
  %92 = load ptr, ptr %12, align 8, !tbaa !34
  %93 = getelementptr inbounds nuw %struct.ls_refs_data, ptr %92, i32 0, i32 3
  call void @strbuf_addch(ptr noundef %93, i32 noundef 10)
  %94 = load ptr, ptr @stdout, align 8, !tbaa !29
  %95 = load ptr, ptr %12, align 8, !tbaa !34
  %96 = getelementptr inbounds nuw %struct.ls_refs_data, ptr %95, i32 0, i32 3
  %97 = getelementptr inbounds nuw %struct.strbuf, ptr %96, i32 0, i32 2
  %98 = load ptr, ptr %97, align 8, !tbaa !43
  %99 = load ptr, ptr %12, align 8, !tbaa !34
  %100 = getelementptr inbounds nuw %struct.ls_refs_data, ptr %99, i32 0, i32 3
  %101 = getelementptr inbounds nuw %struct.strbuf, ptr %100, i32 0, i32 1
  %102 = load i64, ptr %101, align 8, !tbaa !44
  call void @packet_fwrite(ptr noundef %94, ptr noundef %98, i64 noundef %102)
  store i32 0, ptr %6, align 4
  store i32 1, ptr %14, align 4
  br label %103

103:                                              ; preds = %91, %36, %29
  call void @llvm.lifetime.end.p0(i64 8, ptr %13) #9
  call void @llvm.lifetime.end.p0(i64 8, ptr %12) #9
  %104 = load i32, ptr %6, align 4
  ret i32 %104
}