; Function Attrs: nounwind uwtable
define internal noundef i32 @send_ref(ptr noundef %0, ptr readnone captures(none) %1, ptr noundef %2, i32 noundef %3, ptr noundef initializes((40, 48)) %4) #0 {
  %6 = alloca i32, align 4
  %7 = alloca %struct.object_id, align 4
  %8 = alloca %struct.object_id, align 4
  store i32 %3, ptr %6, align 4, !tbaa !28
  %9 = tail call ptr @strip_namespace(ptr noundef %0) #10
  %10 = getelementptr inbounds nuw i8, ptr %4, i64 32
  %11 = getelementptr inbounds nuw i8, ptr %4, i64 40
  store i64 0, ptr %11, align 8, !tbaa !33
  %12 = getelementptr inbounds nuw i8, ptr %4, i64 48
  %13 = load ptr, ptr %12, align 8, !tbaa !27
  %.not9.i = icmp eq ptr %13, @strbuf_slopbuf
  br i1 %.not9.i, label %strbuf_setlen.exit, label %14

14:                                               ; preds = %5
  store i8 0, ptr %13, align 1, !tbaa !21
  br label %strbuf_setlen.exit

strbuf_setlen.exit:                               ; preds = %5, %14
  %15 = getelementptr inbounds nuw i8, ptr %4, i64 56
  %16 = tail call i32 @ref_is_hidden(ptr noundef %9, ptr noundef %0, ptr noundef nonnull %15) #10
  %.not = icmp eq i32 %16, 0
  br i1 %.not, label %17, label %ref_match.exit

17:                                               ; preds = %strbuf_setlen.exit
  %18 = getelementptr inbounds nuw i8, ptr %4, i64 8
  %19 = getelementptr inbounds nuw i8, ptr %4, i64 16
  %20 = load i64, ptr %19, align 8, !tbaa !34
  %.not.i = icmp eq i64 %20, 0
  br i1 %.not.i, label %.loopexit, label %.lr.ph.i

21:                                               ; preds = %.lr.ph.i
  %22 = add nuw i64 %.01216.i, 1
  %23 = load i64, ptr %19, align 8, !tbaa !34
  %.not14.i = icmp ult i64 %22, %23
  br i1 %.not14.i, label %.lr.ph.i, label %ref_match.exit, !llvm.loop !35

.lr.ph.i:                                         ; preds = %17, %21
  %.01216.i = phi i64 [ %22, %21 ], [ 0, %17 ]
  %24 = load ptr, ptr %18, align 8, !tbaa !36
  %25 = getelementptr inbounds nuw ptr, ptr %24, i64 %.01216.i
  %26 = load ptr, ptr %25, align 8, !tbaa !32
  %27 = tail call i32 @starts_with(ptr noundef %9, ptr noundef %26) #10
  %.not13.i = icmp eq i32 %27, 0
  br i1 %.not13.i, label %21, label %.loopexit

.loopexit:                                        ; preds = %.lr.ph.i, %17
  %28 = icmp ne ptr %2, null
  br i1 %28, label %29, label %31

29:                                               ; preds = %.loopexit
  %30 = tail call ptr @oid_to_hex(ptr noundef nonnull %2) #10
  tail call void (ptr, ptr, ...) @strbuf_addf(ptr noundef nonnull %10, ptr noundef nonnull @.str.14, ptr noundef %30, ptr noundef %9) #10
  br label %32

31:                                               ; preds = %.loopexit
  tail call void (ptr, ptr, ...) @strbuf_addf(ptr noundef nonnull %10, ptr noundef nonnull @.str.15, ptr noundef %9) #10
  br label %32

32:                                               ; preds = %31, %29
  %33 = getelementptr inbounds nuw i8, ptr %4, i64 4
  %34 = load i32, ptr %33, align 4, !tbaa !20
  %.not30 = icmp eq i32 %34, 0
  %35 = and i32 %3, 1
  %.not31 = icmp eq i32 %35, 0
  %or.cond37 = or i1 %.not30, %.not31
  br i1 %or.cond37, label %43, label %36

36:                                               ; preds = %32
  call void @llvm.lifetime.start.p0(i64 36, ptr nonnull %7) #10
  %37 = load ptr, ptr @the_repository, align 8, !tbaa !4
  %38 = tail call ptr @get_main_ref_store(ptr noundef %37) #10
  %39 = call ptr @refs_resolve_ref_unsafe(ptr noundef %38, ptr noundef %0, i32 noundef 0, ptr noundef nonnull %7, ptr noundef nonnull %6) #10
  %.not32 = icmp eq ptr %39, null
  br i1 %.not32, label %40, label %41

40:                                               ; preds = %36
  call void (ptr, ...) @die(ptr noundef nonnull @.str.16, ptr noundef %0) #12
  unreachable

41:                                               ; preds = %36
  %42 = call ptr @strip_namespace(ptr noundef nonnull %39) #10
  call void (ptr, ptr, ...) @strbuf_addf(ptr noundef nonnull %10, ptr noundef nonnull @.str.17, ptr noundef %42) #10
  call void @llvm.lifetime.end.p0(i64 36, ptr nonnull %7) #10
  br label %43

43:                                               ; preds = %41, %32
  %44 = load i32, ptr %4, align 8, !tbaa !16
  %45 = icmp ne i32 %44, 0
  %or.cond = and i1 %28, %45
  br i1 %or.cond, label %46, label %52

46:                                               ; preds = %43
  call void @llvm.lifetime.start.p0(i64 36, ptr nonnull %8) #10
  %47 = load ptr, ptr @the_repository, align 8, !tbaa !4
  %48 = call i32 @peel_iterated_oid(ptr noundef %47, ptr noundef nonnull %2, ptr noundef nonnull %8) #10
  %.not33 = icmp eq i32 %48, 0
  br i1 %.not33, label %49, label %51

49:                                               ; preds = %46
  %50 = call ptr @oid_to_hex(ptr noundef nonnull %8) #10
  call void (ptr, ptr, ...) @strbuf_addf(ptr noundef nonnull %10, ptr noundef nonnull @.str.18, ptr noundef %50) #10
  br label %51

51:                                               ; preds = %49, %46
  call void @llvm.lifetime.end.p0(i64 36, ptr nonnull %8) #10
  br label %52

52:                                               ; preds = %51, %43
  %53 = load i64, ptr %10, align 8, !tbaa !37
  %.not.i.i = icmp eq i64 %53, 0
  br i1 %.not.i.i, label %strbuf_avail.exit.thread.i, label %strbuf_avail.exit.i

strbuf_avail.exit.i:                              ; preds = %52
  %54 = load i64, ptr %11, align 8, !tbaa !33
  %.neg.i = add i64 %54, 1
  %.not.i34 = icmp eq i64 %53, %.neg.i
  br i1 %.not.i34, label %strbuf_avail.exit.thread.i, label %strbuf_addch.exit

strbuf_avail.exit.thread.i:                       ; preds = %strbuf_avail.exit.i, %52
  call void @strbuf_grow(ptr noundef nonnull %10, i64 noundef 1) #10
  %.pre.i = load i64, ptr %11, align 8, !tbaa !33
  %.pre7.i = add i64 %.pre.i, 1
  br label %strbuf_addch.exit

strbuf_addch.exit:                                ; preds = %strbuf_avail.exit.i, %strbuf_avail.exit.thread.i
  %.pre-phi.i = phi i64 [ %.pre7.i, %strbuf_avail.exit.thread.i ], [ %.neg.i, %strbuf_avail.exit.i ]
  %55 = phi i64 [ %.pre.i, %strbuf_avail.exit.thread.i ], [ %54, %strbuf_avail.exit.i ]
  %56 = load ptr, ptr %12, align 8, !tbaa !27
  store i64 %.pre-phi.i, ptr %11, align 8, !tbaa !33
  %57 = getelementptr inbounds nuw i8, ptr %56, i64 %55
  store i8 10, ptr %57, align 1, !tbaa !21
  %58 = load ptr, ptr %12, align 8, !tbaa !27
  %59 = load i64, ptr %11, align 8, !tbaa !33
  %60 = getelementptr inbounds nuw i8, ptr %58, i64 %59
  store i8 0, ptr %60, align 1, !tbaa !21
  %61 = load ptr, ptr @stdout, align 8, !tbaa !30
  %62 = load ptr, ptr %12, align 8, !tbaa !38
  %63 = load i64, ptr %11, align 8, !tbaa !39
  call void @packet_fwrite(ptr noundef %61, ptr noundef %62, i64 noundef %63) #10
  br label %ref_match.exit

ref_match.exit:                                   ; preds = %21, %strbuf_setlen.exit, %strbuf_addch.exit
  ret i32 0
}